; Function Attrs: mustprogress uwtable
define hidden void @_ZN16EllipticKeyPoint22getSecondMomentsMatrixERKN2cv7Scalar_IdEE(ptr dead_on_unwind noalias nonnull writable sret(%"class.cv::Mat_") align 8 %0, ptr nocapture noundef nonnull readonly align 8 dereferenceable(32) %1) local_unnamed_addr #5 align 2 personality ptr @__gxx_personality_v0 {
  tail call void @_ZN2cv3MatC2Eiii(ptr noundef nonnull align 8 dereferenceable(96) %0, i32 noundef 2, i32 noundef 2, i32 noundef 6)
  %3 = load double, ptr %1, align 8
  %4 = getelementptr inbounds i8, ptr %0, i64 16
  %5 = load ptr, ptr %4, align 8
  %6 = getelementptr inbounds i8, ptr %0, i64 72
  store double %3, ptr %5, align 8
  %7 = getelementptr inbounds i8, ptr %1, i64 8
  %8 = load double, ptr %7, align 8
  %9 = load ptr, ptr %4, align 8
  %10 = getelementptr inbounds i8, ptr %9, i64 8
  store double %8, ptr %10, align 8
  %11 = load ptr, ptr %4, align 8
  %12 = load ptr, ptr %6, align 8
  %13 = load i64, ptr %12, align 8
  %14 = getelementptr inbounds i8, ptr %11, i64 %13
  store double %8, ptr %14, align 8
  %15 = getelementptr inbounds i8, ptr %1, i64 16
  %16 = load double, ptr %15, align 8
  %17 = load ptr, ptr %4, align 8
  %18 = load ptr, ptr %6, align 8
  %19 = load i64, ptr %18, align 8
  %20 = getelementptr inbounds i8, ptr %17, i64 %19
  %21 = getelementptr inbounds i8, ptr %20, i64 8
  store double %16, ptr %21, align 8
  ret void
}